#include <math.h>
#include <stdio.h>
#include <stdlib.h>
#include <string.h>

int main()
{
	int n,a,b,c,d;
	scanf("%d",&n);
	if(n>=1000&&n<10000)
	{
		a=n/1000;
		b=(n-a*1000)/100;
		c=(n-a*1000-b*100)/10;
		d=n-a*1000-b*100-c*10;
		printf("%d%d%d%d\n",d,c,b,a);
	}
	else
	{
		if(n>=100&&n<1000)
		{
			a=n/100;
			b=(n-a*100)/10;
			c=n-a*100-b*10;
			printf("%d%d%d\n",c,b,a);
		}
		else
		{
			if(n>=10&&n<100)
			{
				a=n/10;
				b=n-a*10;
				printf("%d%d\n",b,a);
			}
			else
			{
				if(n<10)
				{
					printf("%d\n",n);
				}
				else
				{
					printf("00001\n");
				}
			}
		}
	}
		return 0;
}